target datalayout = "e-m:e-p270:32:32-p271:32:32-p272:64:64-i64:64-i128:128-f80:128-n8:16:32:64-S128"
target triple = "x86_64-pc-linux-gnu"

; Function Attrs: mustprogress uwtable
define dso_local void @_ZN5cmsys11SystemTools5DelayEj(i32 noundef %0) #7 align 2 {
  %2 = alloca i32, align 4
  store i32 %0, ptr %2, align 4, !tbaa !41
  %3 = load i32, ptr %2, align 4, !tbaa !41
  %4 = icmp uge i32 %3, 1000
  br i1 %4, label %5, label %13

5:                                                ; preds = %1
  %6 = load i32, ptr %2, align 4, !tbaa !41
  %7 = udiv i32 %6, 1000
  %8 = call i32 @sleep(i32 noundef %7)
  %9 = load i32, ptr %2, align 4, !tbaa !41
  %10 = urem i32 %9, 1000
  %11 = mul i32 %10, 1000
  %12 = call i32 @usleep(i32 noundef %11)
  br label %17

13:                                               ; preds = %1
  %14 = load i32, ptr %2, align 4, !tbaa !41
  %15 = mul i32 %14, 1000
  %16 = call i32 @usleep(i32 noundef %15)
  br label %17

17:                                               ; preds = %13, %5
  ret void
}