; Function Attrs: mustprogress uwtable
define dso_local void @_ZN5cmsys11SystemTools5DelayEj(i32 noundef %0) local_unnamed_addr #6 align 2 {
  %2 = icmp ugt i32 %0, 999
  br i1 %2, label %3, label %7

3:                                                ; preds = %1
  %4 = udiv i32 %0, 1000
  %5 = tail call i32 @sleep(i32 noundef %4)
  %6 = urem i32 %0, 1000
  br label %7

7:                                                ; preds = %1, %3
  %.sink4 = phi i32 [ %6, %3 ], [ %0, %1 ]
  %8 = mul nuw nsw i32 %.sink4, 1000
  %9 = tail call i32 @usleep(i32 noundef %8)
  ret void
}